target datalayout = "e-m:e-p270:32:32-p271:32:32-p272:64:64-i64:64-i128:128-f80:128-n8:16:32:64-S128"
target triple = "x86_64-pc-linux-gnu"

%struct._zend_phar_globals = type { %struct._zend_array, %struct._zend_array, ptr, %struct._zend_array, i32, i32, ptr, i32, i32, i32, i32, i8, i8, i8, i32, i32, i32, i32, ptr, ptr, ptr, ptr, ptr, ptr, ptr, ptr, ptr, ptr, ptr, ptr, ptr, ptr, ptr, ptr, ptr, ptr, ptr, ptr, ptr, ptr, ptr, i32, i32, ptr, i32, ptr, i32, ptr, i32, ptr, %struct._zend_array }
%struct._zend_array = type { %struct._zend_refcounted_h, %union.anon.0, i32, %union.anon.1, i32, i32, i32, i32, i64, ptr }
%struct._zend_refcounted_h = type { i32, %union.anon }
%union.anon = type { i32 }
%union.anon.0 = type { i32 }
%union.anon.1 = type { ptr }
%struct._phar_entry_fp = type { ptr, ptr, ptr }

@phar_globals = hidden global %struct._zend_phar_globals zeroinitializer, align 8
@cached_phars = hidden global %struct._zend_array zeroinitializer, align 8

; Function Attrs: nounwind uwtable
define hidden i32 @zm_deactivate_phar(i32 noundef %0, i32 noundef %1) #0 {
  %3 = alloca ptr, align 8
  %4 = alloca i32, align 4
  %5 = alloca i32, align 4
  %6 = alloca i32, align 4
  store i32 %0, ptr %4, align 4
  store i32 %1, ptr %5, align 4
  store i32 1, ptr getelementptr inbounds (%struct._zend_phar_globals, ptr @phar_globals, i32 0, i32 17), align 8
  %7 = load i32, ptr getelementptr inbounds (%struct._zend_phar_globals, ptr @phar_globals, i32 0, i32 14), align 4
  %8 = icmp ne i32 %7, 0
  br i1 %8, label %9, label %75

9:                                                ; preds = %2
  call void @phar_release_functions()
  call void @zend_hash_destroy(ptr noundef getelementptr inbounds (%struct._zend_phar_globals, ptr @phar_globals, i32 0, i32 3))
  br label %10

10:                                               ; preds = %9
  store i32 8, ptr getelementptr inbounds (%struct._zend_phar_globals, ptr @phar_globals, i32 0, i32 3, i32 1), align 8
  br label %11

11:                                               ; preds = %10
  call void @zend_hash_destroy(ptr noundef getelementptr inbounds (%struct._zend_phar_globals, ptr @phar_globals, i32 0, i32 1))
  br label %12

12:                                               ; preds = %11
  store i32 8, ptr getelementptr inbounds (%struct._zend_phar_globals, ptr @phar_globals, i32 0, i32 1, i32 1), align 8
  br label %13

13:                                               ; preds = %12
  call void @zend_hash_destroy(ptr noundef @phar_globals)
  br label %14

14:                                               ; preds = %13
  store i32 8, ptr getelementptr inbounds (%struct._zend_array, ptr @phar_globals, i32 0, i32 1), align 8
  br label %15

15:                                               ; preds = %14
  store i32 0, ptr getelementptr inbounds (%struct._zend_phar_globals, ptr @phar_globals, i32 0, i32 4), align 8
  %16 = load ptr, ptr getelementptr inbounds (%struct._zend_phar_globals, ptr @phar_globals, i32 0, i32 2), align 8
  %17 = icmp ne ptr %16, null
  br i1 %17, label %18, label %69

18:                                               ; preds = %15
  store i32 0, ptr %6, align 4
  br label %19

19:                                               ; preds = %64, %18
  %20 = load i32, ptr %6, align 4
  store ptr @cached_phars, ptr %3, align 8
  %21 = load ptr, ptr %3, align 8
  %22 = getelementptr inbounds %struct._zend_array, ptr %21, i32 0, i32 5
  %23 = load i32, ptr %22, align 4
  %24 = icmp ult i32 %20, %23
  br i1 %24, label %25, label %67

25:                                               ; preds = %19
  %26 = load ptr, ptr getelementptr inbounds (%struct._zend_phar_globals, ptr @phar_globals, i32 0, i32 2), align 8
  %27 = load i32, ptr %6, align 4
  %28 = zext i32 %27 to i64
  %29 = getelementptr inbounds %struct._phar_entry_fp, ptr %26, i64 %28
  %30 = getelementptr inbounds %struct._phar_entry_fp, ptr %29, i32 0, i32 0
  %31 = load ptr, ptr %30, align 8
  %32 = icmp ne ptr %31, null
  br i1 %32, label %33, label %41

33:                                               ; preds = %25
  %34 = load ptr, ptr getelementptr inbounds (%struct._zend_phar_globals, ptr @phar_globals, i32 0, i32 2), align 8
  %35 = load i32, ptr %6, align 4
  %36 = zext i32 %35 to i64
  %37 = getelementptr inbounds %struct._phar_entry_fp, ptr %34, i64 %36
  %38 = getelementptr inbounds %struct._phar_entry_fp, ptr %37, i32 0, i32 0
  %39 = load ptr, ptr %38, align 8
  %40 = call i32 @_php_stream_free(ptr noundef %39, i32 noundef 3)
  br label %41

41:                                               ; preds = %33, %25
  %42 = load ptr, ptr getelementptr inbounds (%struct._zend_phar_globals, ptr @phar_globals, i32 0, i32 2), align 8
  %43 = load i32, ptr %6, align 4
  %44 = zext i32 %43 to i64
  %45 = getelementptr inbounds %struct._phar_entry_fp, ptr %42, i64 %44
  %46 = getelementptr inbounds %struct._phar_entry_fp, ptr %45, i32 0, i32 1
  %47 = load ptr, ptr %46, align 8
  %48 = icmp ne ptr %47, null
  br i1 %48, label %49, label %57

49:                                               ; preds = %41
  %50 = load ptr, ptr getelementptr inbounds (%struct._zend_phar_globals, ptr @phar_globals, i32 0, i32 2), align 8
  %51 = load i32, ptr %6, align 4
  %52 = zext i32 %51 to i64
  %53 = getelementptr inbounds %struct._phar_entry_fp, ptr %50, i64 %52
  %54 = getelementptr inbounds %struct._phar_entry_fp, ptr %53, i32 0, i32 1
  %55 = load ptr, ptr %54, align 8
  %56 = call i32 @_php_stream_free(ptr noundef %55, i32 noundef 3)
  br label %57

57:                                               ; preds = %49, %41
  %58 = load ptr, ptr getelementptr inbounds (%struct._zend_phar_globals, ptr @phar_globals, i32 0, i32 2), align 8
  %59 = load i32, ptr %6, align 4
  %60 = zext i32 %59 to i64
  %61 = getelementptr inbounds %struct._phar_entry_fp, ptr %58, i64 %60
  %62 = getelementptr inbounds %struct._phar_entry_fp, ptr %61, i32 0, i32 2
  %63 = load ptr, ptr %62, align 8
  call void @_efree(ptr noundef %63)
  br label %64

64:                                               ; preds = %57
  %65 = load i32, ptr %6, align 4
  %66 = add i32 %65, 1
  store i32 %66, ptr %6, align 4
  br label %19

67:                                               ; preds = %19
  %68 = load ptr, ptr getelementptr inbounds (%struct._zend_phar_globals, ptr @phar_globals, i32 0, i32 2), align 8
  call void @_efree(ptr noundef %68)
  store ptr null, ptr getelementptr inbounds (%struct._zend_phar_globals, ptr @phar_globals, i32 0, i32 2), align 8
  br label %69

69:                                               ; preds = %67, %15
  store i32 0, ptr getelementptr inbounds (%struct._zend_phar_globals, ptr @phar_globals, i32 0, i32 14), align 4
  %70 = load ptr, ptr getelementptr inbounds (%struct._zend_phar_globals, ptr @phar_globals, i32 0, i32 40), align 8
  %71 = icmp ne ptr %70, null
  br i1 %71, label %72, label %74

72:                                               ; preds = %69
  %73 = load ptr, ptr getelementptr inbounds (%struct._zend_phar_globals, ptr @phar_globals, i32 0, i32 40), align 8
  call void @_efree(ptr noundef %73)
  br label %74

74:                                               ; preds = %72, %69
  store ptr null, ptr getelementptr inbounds (%struct._zend_phar_globals, ptr @phar_globals, i32 0, i32 40), align 8
  store i32 0, ptr getelementptr inbounds (%struct._zend_phar_globals, ptr @phar_globals, i32 0, i32 41), align 8
  store i32 0, ptr getelementptr inbounds (%struct._zend_phar_globals, ptr @phar_globals, i32 0, i32 42), align 4
  br label %75

75:                                               ; preds = %74, %2
  store i32 1, ptr getelementptr inbounds (%struct._zend_phar_globals, ptr @phar_globals, i32 0, i32 16), align 4
  ret i32 0
}