; Function Attrs: nounwind uwtable
define hidden noundef i32 @zm_deactivate_phar(i32 %0, i32 %1) #0 {
  store i32 1, ptr getelementptr inbounds (%struct._zend_phar_globals, ptr @phar_globals, i64 0, i32 17), align 8
  %3 = load i32, ptr getelementptr inbounds (%struct._zend_phar_globals, ptr @phar_globals, i64 0, i32 14), align 4
  %.not = icmp eq i32 %3, 0
  br i1 %.not, label %30, label %4

4:                                                ; preds = %2
  tail call void @phar_release_functions() #23
  tail call void @zend_hash_destroy(ptr noundef nonnull getelementptr inbounds (%struct._zend_phar_globals, ptr @phar_globals, i64 0, i32 3)) #23
  store i32 8, ptr getelementptr inbounds (%struct._zend_phar_globals, ptr @phar_globals, i64 0, i32 3, i32 1), align 8
  tail call void @zend_hash_destroy(ptr noundef nonnull getelementptr inbounds (%struct._zend_phar_globals, ptr @phar_globals, i64 0, i32 1)) #23
  store i32 8, ptr getelementptr inbounds (%struct._zend_phar_globals, ptr @phar_globals, i64 0, i32 1, i32 1), align 8
  tail call void @zend_hash_destroy(ptr noundef nonnull @phar_globals) #23
  store i32 8, ptr getelementptr inbounds (%struct._zend_phar_globals, ptr @phar_globals, i64 0, i32 0, i32 1), align 8
  store i32 0, ptr getelementptr inbounds (%struct._zend_phar_globals, ptr @phar_globals, i64 0, i32 4), align 8
  %5 = load ptr, ptr getelementptr inbounds (%struct._zend_phar_globals, ptr @phar_globals, i64 0, i32 2), align 8
  %.not10 = icmp eq ptr %5, null
  br i1 %.not10, label %26, label %.preheader

.preheader:                                       ; preds = %4
  %6 = load i32, ptr getelementptr inbounds (%struct._zend_array, ptr @cached_phars, i64 0, i32 5), align 4
  %.not15 = icmp eq i32 %6, 0
  br i1 %.not15, label %._crit_edge, label %.lr.ph

.lr.ph:                                           ; preds = %.preheader, %18
  %indvars.iv = phi i64 [ %indvars.iv.next, %18 ], [ 0, %.preheader ]
  %7 = load ptr, ptr getelementptr inbounds (%struct._zend_phar_globals, ptr @phar_globals, i64 0, i32 2), align 8
  %8 = getelementptr inbounds %struct._phar_entry_fp, ptr %7, i64 %indvars.iv
  %9 = load ptr, ptr %8, align 8
  %.not12 = icmp eq ptr %9, null
  br i1 %.not12, label %12, label %10

10:                                               ; preds = %.lr.ph
  %11 = tail call i32 @_php_stream_free(ptr noundef nonnull %9, i32 noundef 3) #23
  %.pre = load ptr, ptr getelementptr inbounds (%struct._zend_phar_globals, ptr @phar_globals, i64 0, i32 2), align 8
  br label %12

12:                                               ; preds = %10, %.lr.ph
  %13 = phi ptr [ %.pre, %10 ], [ %7, %.lr.ph ]
  %14 = getelementptr inbounds %struct._phar_entry_fp, ptr %13, i64 %indvars.iv, i32 1
  %15 = load ptr, ptr %14, align 8
  %.not13 = icmp eq ptr %15, null
  br i1 %.not13, label %18, label %16

16:                                               ; preds = %12
  %17 = tail call i32 @_php_stream_free(ptr noundef nonnull %15, i32 noundef 3) #23
  %.pre17 = load ptr, ptr getelementptr inbounds (%struct._zend_phar_globals, ptr @phar_globals, i64 0, i32 2), align 8
  br label %18

18:                                               ; preds = %16, %12
  %19 = phi ptr [ %.pre17, %16 ], [ %13, %12 ]
  %20 = getelementptr inbounds %struct._phar_entry_fp, ptr %19, i64 %indvars.iv, i32 2
  %21 = load ptr, ptr %20, align 8
  tail call void @_efree(ptr noundef %21) #23
  %indvars.iv.next = add nuw nsw i64 %indvars.iv, 1
  %22 = load i32, ptr getelementptr inbounds (%struct._zend_array, ptr @cached_phars, i64 0, i32 5), align 4
  %23 = zext i32 %22 to i64
  %24 = icmp ult i64 %indvars.iv.next, %23
  br i1 %24, label %.lr.ph, label %._crit_edge.loopexit

._crit_edge.loopexit:                             ; preds = %18
  %.pre18 = load ptr, ptr getelementptr inbounds (%struct._zend_phar_globals, ptr @phar_globals, i64 0, i32 2), align 8
  br label %._crit_edge

._crit_edge:                                      ; preds = %._crit_edge.loopexit, %.preheader
  %25 = phi ptr [ %.pre18, %._crit_edge.loopexit ], [ %5, %.preheader ]
  tail call void @_efree(ptr noundef %25) #23
  store ptr null, ptr getelementptr inbounds (%struct._zend_phar_globals, ptr @phar_globals, i64 0, i32 2), align 8
  br label %26

26:                                               ; preds = %._crit_edge, %4
  store i32 0, ptr getelementptr inbounds (%struct._zend_phar_globals, ptr @phar_globals, i64 0, i32 14), align 4
  %27 = load ptr, ptr getelementptr inbounds (%struct._zend_phar_globals, ptr @phar_globals, i64 0, i32 40), align 8
  %.not11 = icmp eq ptr %27, null
  br i1 %.not11, label %29, label %28

28:                                               ; preds = %26
  tail call void @_efree(ptr noundef nonnull %27) #23
  br label %29

29:                                               ; preds = %28, %26
  tail call void @llvm.memset.p0.i64(ptr noundef nonnull align 8 dereferenceable(16) getelementptr inbounds (%struct._zend_phar_globals, ptr @phar_globals, i64 0, i32 40), i8 0, i64 16, i1 false)
  br label %30

30:                                               ; preds = %29, %2
  store i32 1, ptr getelementptr inbounds (%struct._zend_phar_globals, ptr @phar_globals, i64 0, i32 16), align 4
  ret i32 0
}